; Function Attrs: mustprogress nounwind uwtable
define void @_ZN3net25QuicReceivedPacketManager14EntropyTracker42AdvanceFirstGapAndGarbageCollectEntropyMapEv(ptr noundef nonnull align 8 captures(none) dereferenceable(104) %0) local_unnamed_addr #1 align 2 personality ptr @__gxx_personality_v0 {
  %2 = getelementptr inbounds nuw i8, ptr %0, i64 48
  %3 = getelementptr inbounds nuw i8, ptr %0, i64 16
  %4 = load ptr, ptr %2, align 8, !tbaa !29
  %5 = load ptr, ptr %3, align 8, !tbaa !29
  %6 = icmp eq ptr %4, %5
  br i1 %6, label %.critedge, label %.lr.ph

.lr.ph:                                           ; preds = %1
  %7 = getelementptr inbounds nuw i8, ptr %0, i64 88
  %8 = getelementptr inbounds nuw i8, ptr %0, i64 32
  %9 = getelementptr inbounds nuw i8, ptr %0, i64 24
  %10 = getelementptr inbounds nuw i8, ptr %0, i64 40
  br label %11

11:                                               ; preds = %.lr.ph, %_ZNSt5dequeISt4pairIhbESaIS1_EE9pop_frontEv.exit
  %12 = phi ptr [ %4, %.lr.ph ], [ %30, %_ZNSt5dequeISt4pairIhbESaIS1_EE9pop_frontEv.exit ]
  %13 = phi ptr [ %5, %.lr.ph ], [ %storemerge.i, %_ZNSt5dequeISt4pairIhbESaIS1_EE9pop_frontEv.exit ]
  %14 = getelementptr inbounds nuw i8, ptr %13, i64 1
  %15 = load i8, ptr %14, align 1, !tbaa !36, !range !41, !noundef !42
  %16 = trunc nuw i8 %15 to i1
  br i1 %16, label %17, label %.critedge

17:                                               ; preds = %11
  %18 = load i64, ptr %7, align 8, !tbaa !16
  %19 = add i64 %18, 1
  store i64 %19, ptr %7, align 8, !tbaa !16
  %20 = load ptr, ptr %8, align 8, !tbaa !43
  %21 = getelementptr inbounds i8, ptr %20, i64 -2
  %.not.i = icmp eq ptr %13, %21
  br i1 %.not.i, label %24, label %22

22:                                               ; preds = %17
  %23 = getelementptr inbounds nuw i8, ptr %13, i64 2
  br label %_ZNSt5dequeISt4pairIhbESaIS1_EE9pop_frontEv.exit

24:                                               ; preds = %17
  %25 = load ptr, ptr %9, align 8, !tbaa !44
  tail call void @_ZdlPv(ptr noundef %25) #17
  %26 = load ptr, ptr %10, align 8, !tbaa !19
  %27 = getelementptr inbounds nuw i8, ptr %26, i64 8
  store ptr %27, ptr %10, align 8, !tbaa !24
  %28 = load ptr, ptr %27, align 8, !tbaa !21
  store ptr %28, ptr %9, align 8, !tbaa !28
  %29 = getelementptr inbounds nuw i8, ptr %28, i64 512
  store ptr %29, ptr %8, align 8, !tbaa !45
  %.pre = load ptr, ptr %2, align 8, !tbaa !29
  br label %_ZNSt5dequeISt4pairIhbESaIS1_EE9pop_frontEv.exit

_ZNSt5dequeISt4pairIhbESaIS1_EE9pop_frontEv.exit: ; preds = %22, %24
  %30 = phi ptr [ %12, %22 ], [ %.pre, %24 ]
  %storemerge.i = phi ptr [ %23, %22 ], [ %28, %24 ]
  store ptr %storemerge.i, ptr %3, align 8, !tbaa !46
  %31 = icmp eq ptr %30, %storemerge.i
  br i1 %31, label %.critedge, label %11, !llvm.loop !47

.critedge:                                        ; preds = %11, %_ZNSt5dequeISt4pairIhbESaIS1_EE9pop_frontEv.exit, %1
  ret void
}